target datalayout = "e-m:e-p270:32:32-p271:32:32-p272:64:64-i64:64-i128:128-f80:128-n8:16:32:64-S128"
target triple = "x86_64-pc-linux-gnu"

%class.dtNavMeshQuery = type { ptr, %"struct.dtNavMeshQuery::dtQueryData", ptr, ptr, ptr }
%"struct.dtNavMeshQuery::dtQueryData" = type { i32, ptr, float, i32, i32, [3 x float], [3 x float], ptr, i32, float }
%class.dtNodePool = type <{ ptr, ptr, ptr, i32, i32, i32, [4 x i8] }>
%struct.dtNode = type { [3 x float], float, float, i32, i32 }

@.str.1 = private unnamed_addr constant [148 x i8] c"generated/home/dtcxzyw/WorkSpace/Projects/compilers/llvm-opt-benchmark/bench/recastnavigation/recastnavigation/Detour/Source/DetourNavMeshQuery.cpp\00", align 1
@.str.4 = private unnamed_addr constant [8 x i8] c"curNode\00", align 1
@.str.5 = private unnamed_addr constant [9 x i8] c"!curNode\00", align 1

; Function Attrs: mustprogress nounwind uwtable
define linkonce_odr noundef i32 @_Z5dtMinIiET_S0_S0_(i32 noundef %0, i32 noundef %1) #0 comdat {
  %3 = alloca i32, align 4
  %4 = alloca i32, align 4
  store i32 %0, ptr %3, align 4
  store i32 %1, ptr %4, align 4
  %5 = load i32, ptr %3, align 4
  %6 = load i32, ptr %4, align 4
  %7 = icmp slt i32 %5, %6
  br i1 %7, label %8, label %10

8:                                                ; preds = %2
  %9 = load i32, ptr %3, align 4
  br label %12

10:                                               ; preds = %2
  %11 = load i32, ptr %4, align 4
  br label %12

12:                                               ; preds = %10, %8
  %13 = phi i32 [ %9, %8 ], [ %11, %10 ]
  ret i32 %13
}

; Function Attrs: mustprogress nounwind uwtable
define linkonce_odr noundef ptr @_ZN10dtNodePool12getNodeAtIdxEj(ptr noundef nonnull align 8 dereferenceable(36) %0, i32 noundef %1) #0 comdat align 2 {
  %3 = alloca ptr, align 8
  %4 = alloca ptr, align 8
  %5 = alloca i32, align 4
  store ptr %0, ptr %4, align 8
  store i32 %1, ptr %5, align 4
  %6 = load ptr, ptr %4, align 8
  %7 = load i32, ptr %5, align 4
  %8 = icmp ne i32 %7, 0
  br i1 %8, label %10, label %9

9:                                                ; preds = %2
  store ptr null, ptr %3, align 8
  br label %17

10:                                               ; preds = %2
  %11 = getelementptr inbounds %class.dtNodePool, ptr %6, i32 0, i32 0
  %12 = load ptr, ptr %11, align 8
  %13 = load i32, ptr %5, align 4
  %14 = sub i32 %13, 1
  %15 = zext i32 %14 to i64
  %16 = getelementptr inbounds %struct.dtNode, ptr %12, i64 %15
  store ptr %16, ptr %3, align 8
  br label %17

17:                                               ; preds = %10, %9
  %18 = load ptr, ptr %3, align 8
  ret ptr %18
}

; Function Attrs: mustprogress uwtable
define noundef i32 @_ZNK14dtNavMeshQuery13getPathToNodeEP6dtNodePjPii(ptr noundef nonnull align 8 dereferenceable(104) %0, ptr noundef %1, ptr noundef %2, ptr noundef %3, i32 noundef %4) #1 align 2 {
  %6 = alloca i32, align 4
  %7 = alloca ptr, align 8
  %8 = alloca ptr, align 8
  %9 = alloca ptr, align 8
  %10 = alloca ptr, align 8
  %11 = alloca i32, align 4
  %12 = alloca ptr, align 8
  %13 = alloca i32, align 4
  %14 = alloca i32, align 4
  %15 = alloca ptr, align 8
  %16 = alloca i32, align 4
  %17 = alloca ptr, align 8
  %18 = alloca ptr, align 8
  store ptr %0, ptr %7, align 8
  store ptr %1, ptr %8, align 8
  store ptr %2, ptr %9, align 8
  store ptr %3, ptr %10, align 8
  store i32 %4, ptr %11, align 4
  %19 = load ptr, ptr %7, align 8
  %20 = load ptr, ptr %8, align 8
  store ptr %20, ptr %12, align 8
  store i32 0, ptr %13, align 4
  br label %21

21:                                               ; preds = %31, %5
  %22 = load i32, ptr %13, align 4
  %23 = add nsw i32 %22, 1
  store i32 %23, ptr %13, align 4
  %24 = getelementptr inbounds %class.dtNavMeshQuery, ptr %19, i32 0, i32 3
  %25 = load ptr, ptr %24, align 8
  %26 = load ptr, ptr %12, align 8
  %27 = getelementptr inbounds %struct.dtNode, ptr %26, i32 0, i32 3
  %28 = load i32, ptr %27, align 4
  %29 = and i32 %28, 16777215
  %30 = call noundef ptr @_ZN10dtNodePool12getNodeAtIdxEj(ptr noundef nonnull align 8 dereferenceable(36) %25, i32 noundef %29)
  store ptr %30, ptr %12, align 8
  br label %31

31:                                               ; preds = %21
  %32 = load ptr, ptr %12, align 8
  %33 = icmp ne ptr %32, null
  br i1 %33, label %21, label %34, !llvm.loop !28

34:                                               ; preds = %31
  %35 = load ptr, ptr %8, align 8
  store ptr %35, ptr %12, align 8
  %36 = load i32, ptr %13, align 4
  store i32 %36, ptr %14, align 4
  br label %37

37:                                               ; preds = %60, %34
  %38 = load i32, ptr %14, align 4
  %39 = load i32, ptr %11, align 4
  %40 = icmp sgt i32 %38, %39
  br i1 %40, label %41, label %63

41:                                               ; preds = %37
  %42 = call noundef ptr @_Z21dtAssertFailGetCustomv()
  store ptr %42, ptr %15, align 8
  %43 = load ptr, ptr %15, align 8
  %44 = icmp eq ptr %43, null
  br i1 %44, label %45, label %46

45:                                               ; preds = %41
  br label %52

46:                                               ; preds = %41
  %47 = load ptr, ptr %12, align 8
  %48 = icmp ne ptr %47, null
  br i1 %48, label %51, label %49

49:                                               ; preds = %46
  %50 = load ptr, ptr %15, align 8
  call void %50(ptr noundef @.str.4, ptr noundef @.str.1, i32 noundef 1183)
  br label %51

51:                                               ; preds = %49, %46
  br label %52

52:                                               ; preds = %51, %45
  %53 = getelementptr inbounds %class.dtNavMeshQuery, ptr %19, i32 0, i32 3
  %54 = load ptr, ptr %53, align 8
  %55 = load ptr, ptr %12, align 8
  %56 = getelementptr inbounds %struct.dtNode, ptr %55, i32 0, i32 3
  %57 = load i32, ptr %56, align 4
  %58 = and i32 %57, 16777215
  %59 = call noundef ptr @_ZN10dtNodePool12getNodeAtIdxEj(ptr noundef nonnull align 8 dereferenceable(36) %54, i32 noundef %58)
  store ptr %59, ptr %12, align 8
  br label %60

60:                                               ; preds = %52
  %61 = load i32, ptr %14, align 4
  %62 = add nsw i32 %61, -1
  store i32 %62, ptr %14, align 4
  br label %37, !llvm.loop !29

63:                                               ; preds = %37
  %64 = load i32, ptr %14, align 4
  %65 = sub nsw i32 %64, 1
  store i32 %65, ptr %16, align 4
  br label %66

66:                                               ; preds = %95, %63
  %67 = load i32, ptr %16, align 4
  %68 = icmp sge i32 %67, 0
  br i1 %68, label %69, label %98

69:                                               ; preds = %66
  %70 = call noundef ptr @_Z21dtAssertFailGetCustomv()
  store ptr %70, ptr %17, align 8
  %71 = load ptr, ptr %17, align 8
  %72 = icmp eq ptr %71, null
  br i1 %72, label %73, label %74

73:                                               ; preds = %69
  br label %80

74:                                               ; preds = %69
  %75 = load ptr, ptr %12, align 8
  %76 = icmp ne ptr %75, null
  br i1 %76, label %79, label %77

77:                                               ; preds = %74
  %78 = load ptr, ptr %17, align 8
  call void %78(ptr noundef @.str.4, ptr noundef @.str.1, i32 noundef 1191)
  br label %79

79:                                               ; preds = %77, %74
  br label %80

80:                                               ; preds = %79, %73
  %81 = load ptr, ptr %12, align 8
  %82 = getelementptr inbounds %struct.dtNode, ptr %81, i32 0, i32 4
  %83 = load i32, ptr %82, align 4
  %84 = load ptr, ptr %9, align 8
  %85 = load i32, ptr %16, align 4
  %86 = sext i32 %85 to i64
  %87 = getelementptr inbounds i32, ptr %84, i64 %86
  store i32 %83, ptr %87, align 4
  %88 = getelementptr inbounds %class.dtNavMeshQuery, ptr %19, i32 0, i32 3
  %89 = load ptr, ptr %88, align 8
  %90 = load ptr, ptr %12, align 8
  %91 = getelementptr inbounds %struct.dtNode, ptr %90, i32 0, i32 3
  %92 = load i32, ptr %91, align 4
  %93 = and i32 %92, 16777215
  %94 = call noundef ptr @_ZN10dtNodePool12getNodeAtIdxEj(ptr noundef nonnull align 8 dereferenceable(36) %89, i32 noundef %93)
  store ptr %94, ptr %12, align 8
  br label %95

95:                                               ; preds = %80
  %96 = load i32, ptr %16, align 4
  %97 = add nsw i32 %96, -1
  store i32 %97, ptr %16, align 4
  br label %66, !llvm.loop !30

98:                                               ; preds = %66
  %99 = call noundef ptr @_Z21dtAssertFailGetCustomv()
  store ptr %99, ptr %18, align 8
  %100 = load ptr, ptr %18, align 8
  %101 = icmp eq ptr %100, null
  br i1 %101, label %102, label %103

102:                                              ; preds = %98
  br label %109

103:                                              ; preds = %98
  %104 = load ptr, ptr %12, align 8
  %105 = icmp ne ptr %104, null
  br i1 %105, label %106, label %108

106:                                              ; preds = %103
  %107 = load ptr, ptr %18, align 8
  call void %107(ptr noundef @.str.5, ptr noundef @.str.1, i32 noundef 1197)
  br label %108

108:                                              ; preds = %106, %103
  br label %109

109:                                              ; preds = %108, %102
  %110 = load i32, ptr %13, align 4
  %111 = load i32, ptr %11, align 4
  %112 = call noundef i32 @_Z5dtMinIiET_S0_S0_(i32 noundef %110, i32 noundef %111)
  %113 = load ptr, ptr %10, align 8
  store i32 %112, ptr %113, align 4
  %114 = load i32, ptr %13, align 4
  %115 = load i32, ptr %11, align 4
  %116 = icmp sgt i32 %114, %115
  br i1 %116, label %117, label %118

117:                                              ; preds = %109
  store i32 1073741840, ptr %6, align 4
  br label %119

118:                                              ; preds = %109
  store i32 1073741824, ptr %6, align 4
  br label %119

119:                                              ; preds = %118, %117
  %120 = load i32, ptr %6, align 4
  ret i32 %120
}