; Function Attrs: mustprogress uwtable
define noundef i32 @_ZNK14dtNavMeshQuery13getPathToNodeEP6dtNodePjPii(ptr nocapture noundef nonnull readonly align 8 dereferenceable(104) %0, ptr noundef readonly %1, ptr nocapture noundef writeonly %2, ptr nocapture noundef writeonly %3, i32 noundef %4) local_unnamed_addr #1 align 2 {
  %6 = getelementptr inbounds i8, ptr %0, i64 88
  %7 = load ptr, ptr %6, align 8
  %8 = load ptr, ptr %7, align 8
  %.fr = freeze ptr %8
  %.not50 = icmp eq ptr %.fr, null
  br i1 %.not50, label %.preheader51, label %.split.preheader

.split.preheader:                                 ; preds = %5
  %invariant.gep = getelementptr i8, ptr %.fr, i64 -28
  br label %.split

.split:                                           ; preds = %.split.preheader, %.split
  %.039 = phi i32 [ %9, %.split ], [ 0, %.split.preheader ]
  %.037 = phi ptr [ %gep, %.split ], [ %1, %.split.preheader ]
  %9 = add nuw nsw i32 %.039, 1
  %10 = getelementptr inbounds i8, ptr %.037, i64 20
  %11 = load i32, ptr %10, align 4
  %12 = and i32 %11, 16777215
  %.not.i = icmp eq i32 %12, 0
  %13 = zext nneg i32 %12 to i64
  %gep = getelementptr %struct.dtNode, ptr %invariant.gep, i64 %13
  br i1 %.not.i, label %.preheader51, label %.split, !llvm.loop !31

.preheader51:                                     ; preds = %.split, %5
  %.us-phi = phi i32 [ 0, %5 ], [ %.039, %.split ]
  %.us-phi53 = phi i32 [ 1, %5 ], [ %9, %.split ]
  %14 = icmp sgt i32 %.us-phi53, %4
  br i1 %14, label %.lr.ph, label %.lr.ph60.preheader

.preheader:                                       ; preds = %21
  %15 = icmp sgt i32 %4, 0
  br i1 %15, label %.lr.ph60.preheader, label %._crit_edge

.lr.ph60.preheader:                               ; preds = %.preheader51, %.preheader
  %.1.lcssa67 = phi ptr [ %.0.i47, %.preheader ], [ %1, %.preheader51 ]
  %.040.lcssa66 = phi i32 [ %4, %.preheader ], [ %.us-phi53, %.preheader51 ]
  %16 = zext nneg i32 %.040.lcssa66 to i64
  br label %.lr.ph60

.lr.ph:                                           ; preds = %.preheader51, %21
  %.155 = phi ptr [ %.0.i47, %21 ], [ %1, %.preheader51 ]
  %.04054 = phi i32 [ %30, %21 ], [ %.us-phi53, %.preheader51 ]
  %17 = tail call noundef ptr @_Z21dtAssertFailGetCustomv()
  %18 = icmp eq ptr %17, null
  %19 = icmp ne ptr %.155, null
  %or.cond = or i1 %19, %18
  br i1 %or.cond, label %21, label %20

20:                                               ; preds = %.lr.ph
  tail call void %17(ptr noundef nonnull @.str.4, ptr noundef nonnull @.str.1, i32 noundef 1183)
  br label %21

21:                                               ; preds = %20, %.lr.ph
  %22 = load ptr, ptr %6, align 8
  %23 = getelementptr inbounds i8, ptr %.155, i64 20
  %24 = load i32, ptr %23, align 4
  %25 = and i32 %24, 16777215
  %.not.i46 = icmp eq i32 %25, 0
  %26 = load ptr, ptr %22, align 8
  %27 = add nsw i32 %25, -1
  %28 = zext i32 %27 to i64
  %29 = getelementptr inbounds %struct.dtNode, ptr %26, i64 %28
  %.0.i47 = select i1 %.not.i46, ptr null, ptr %29
  %30 = add nsw i32 %.04054, -1
  %31 = icmp sgt i32 %30, %4
  br i1 %31, label %.lr.ph, label %.preheader, !llvm.loop !32

.lr.ph60:                                         ; preds = %.lr.ph60.preheader, %36
  %indvars.iv = phi i64 [ %16, %.lr.ph60.preheader ], [ %indvars.iv.next, %36 ]
  %.258 = phi ptr [ %.1.lcssa67, %.lr.ph60.preheader ], [ %.0.i49, %36 ]
  %indvars.iv.next = add nsw i64 %indvars.iv, -1
  %32 = tail call noundef ptr @_Z21dtAssertFailGetCustomv()
  %33 = icmp eq ptr %32, null
  %34 = icmp ne ptr %.258, null
  %or.cond3 = or i1 %34, %33
  br i1 %or.cond3, label %36, label %35

35:                                               ; preds = %.lr.ph60
  tail call void %32(ptr noundef nonnull @.str.4, ptr noundef nonnull @.str.1, i32 noundef 1191)
  br label %36

36:                                               ; preds = %35, %.lr.ph60
  %37 = getelementptr inbounds i8, ptr %.258, i64 24
  %38 = load i32, ptr %37, align 4
  %39 = getelementptr inbounds i32, ptr %2, i64 %indvars.iv.next
  store i32 %38, ptr %39, align 4
  %40 = load ptr, ptr %6, align 8
  %41 = getelementptr inbounds i8, ptr %.258, i64 20
  %42 = load i32, ptr %41, align 4
  %43 = and i32 %42, 16777215
  %.not.i48 = icmp eq i32 %43, 0
  %44 = load ptr, ptr %40, align 8
  %45 = add nsw i32 %43, -1
  %46 = zext i32 %45 to i64
  %47 = getelementptr inbounds %struct.dtNode, ptr %44, i64 %46
  %.0.i49 = select i1 %.not.i48, ptr null, ptr %47
  %48 = icmp ugt i64 %indvars.iv, 1
  br i1 %48, label %.lr.ph60, label %._crit_edge, !llvm.loop !33

._crit_edge:                                      ; preds = %36, %.preheader
  %.2.lcssa = phi ptr [ %.0.i47, %.preheader ], [ %.0.i49, %36 ]
  %49 = tail call noundef ptr @_Z21dtAssertFailGetCustomv()
  %50 = icmp ne ptr %49, null
  %51 = icmp ne ptr %.2.lcssa, null
  %or.cond5 = and i1 %51, %50
  br i1 %or.cond5, label %52, label %53

52:                                               ; preds = %._crit_edge
  tail call void %49(ptr noundef nonnull @.str.5, ptr noundef nonnull @.str.1, i32 noundef 1197)
  br label %53

53:                                               ; preds = %52, %._crit_edge
  %54 = tail call noundef i32 @llvm.smin.i32(i32 %.us-phi53, i32 %4)
  store i32 %54, ptr %3, align 4
  %.not45 = icmp slt i32 %.us-phi, %4
  %. = select i1 %.not45, i32 1073741824, i32 1073741840
  ret i32 %.
}